; Function Attrs: nofree norecurse nosync nounwind memory(read, argmem: readwrite, inaccessiblemem: none) uwtable
define i64 @HUFv06_decompress1X4(ptr noundef %0, i64 noundef %1, ptr noundef %2, i64 noundef %3) local_unnamed_addr #12 {
  %5 = alloca [4097 x i32], align 16
  call void @llvm.lifetime.start.p0(i64 16388, ptr nonnull %5) #28
  call void @llvm.memset.p0.i64(ptr noundef nonnull align 16 dereferenceable(16388) %5, i8 0, i64 16388, i1 false)
  store i32 12, ptr %5, align 16
  %6 = call i64 @HUFv06_readDTableX4(ptr noundef nonnull %5, ptr noundef %2, i64 noundef %3)
  %7 = icmp ult i64 %6, -119
  br i1 %7, label %8, label %13

8:                                                ; preds = %4
  %.not17 = icmp ult i64 %6, %3
  br i1 %.not17, label %9, label %13

9:                                                ; preds = %8
  %10 = getelementptr inbounds nuw i8, ptr %2, i64 %6
  %11 = sub nuw i64 %3, %6
  %12 = call i64 @HUFv06_decompress1X4_usingDTable(ptr noundef %0, i64 noundef %1, ptr noundef nonnull %10, i64 noundef %11, ptr noundef nonnull %5)
  br label %13

13:                                               ; preds = %8, %4, %9
  %.0 = phi i64 [ %12, %9 ], [ %6, %4 ], [ -72, %8 ]
  call void @llvm.lifetime.end.p0(i64 16388, ptr nonnull %5) #28
  ret i64 %.0
}